target datalayout = "e-m:e-p270:32:32-p271:32:32-p272:64:64-i64:64-i128:128-f80:128-n8:16:32:64-S128"
target triple = "x86_64-pc-linux-gnu"

%struct._object = type { %union.anon, ptr }
%union.anon = type { i64 }
%struct.__va_list_tag = type { i32, i32, ptr, ptr }
%struct.anon.4 = type { i32, i32 }

@PyExc_RuntimeWarning = external global ptr, align 8

; Function Attrs: alwaysinline nounwind uwtable
define internal i32 @_Py_IsImmortal(ptr noundef %0) #4 {
  %2 = alloca ptr, align 8
  store ptr %0, ptr %2, align 8, !tbaa !21
  %3 = load ptr, ptr %2, align 8, !tbaa !21
  %4 = getelementptr inbounds nuw %struct._object, ptr %3, i32 0, i32 0
  %5 = getelementptr inbounds nuw %struct.anon.4, ptr %4, i32 0, i32 0
  %6 = load i32, ptr %5, align 8, !tbaa !37
  %7 = icmp slt i32 %6, 0
  %8 = zext i1 %7 to i32
  ret i32 %8
}

; Function Attrs: alwaysinline nounwind uwtable
define internal void @Py_DECREF(ptr noundef %0) #4 {
  %2 = alloca ptr, align 8
  store ptr %0, ptr %2, align 8, !tbaa !21
  %3 = load ptr, ptr %2, align 8, !tbaa !21
  %4 = call i32 @_Py_IsImmortal(ptr noundef %3)
  %5 = icmp ne i32 %4, 0
  br i1 %5, label %6, label %7

6:                                                ; preds = %1
  br label %16

7:                                                ; preds = %1
  %8 = load ptr, ptr %2, align 8, !tbaa !21
  %9 = getelementptr inbounds nuw %struct._object, ptr %8, i32 0, i32 0
  %10 = getelementptr inbounds nuw %struct.anon.4, ptr %9, i32 0, i32 0
  %11 = load i32, ptr %10, align 8, !tbaa !37
  %12 = add i32 %11, -1
  store i32 %12, ptr %10, align 8, !tbaa !37
  %13 = icmp eq i32 %12, 0
  br i1 %13, label %14, label %16

14:                                               ; preds = %7
  %15 = load ptr, ptr %2, align 8, !tbaa !21
  call void @_Py_Dealloc(ptr noundef %15)
  br label %16

16:                                               ; preds = %6, %14, %7
  ret void
}

; Function Attrs: nounwind uwtable
define internal i32 @warn_unicode(ptr noundef %0, ptr noundef %1, i64 noundef %2, ptr noundef %3) #0 {
  %5 = alloca i32, align 4
  %6 = alloca ptr, align 8
  %7 = alloca ptr, align 8
  %8 = alloca i64, align 8
  %9 = alloca ptr, align 8
  %10 = alloca ptr, align 8
  %11 = alloca i32, align 4
  store ptr %0, ptr %6, align 8, !tbaa !21
  store ptr %1, ptr %7, align 8, !tbaa !21
  store i64 %2, ptr %8, align 8, !tbaa !22
  store ptr %3, ptr %9, align 8, !tbaa !21
  call void @llvm.lifetime.start.p0(i64 8, ptr %10) #8
  %12 = load ptr, ptr %6, align 8, !tbaa !21
  %13 = icmp eq ptr %12, null
  br i1 %13, label %14, label %16

14:                                               ; preds = %4
  %15 = load ptr, ptr @PyExc_RuntimeWarning, align 8, !tbaa !21
  store ptr %15, ptr %6, align 8, !tbaa !21
  br label %16

16:                                               ; preds = %14, %4
  %17 = load ptr, ptr %7, align 8, !tbaa !21
  %18 = load ptr, ptr %6, align 8, !tbaa !21
  %19 = load i64, ptr %8, align 8, !tbaa !22
  %20 = load ptr, ptr %9, align 8, !tbaa !21
  %21 = call ptr @do_warn(ptr noundef %17, ptr noundef %18, i64 noundef %19, ptr noundef %20, ptr noundef null)
  store ptr %21, ptr %10, align 8, !tbaa !21
  %22 = load ptr, ptr %10, align 8, !tbaa !21
  %23 = icmp eq ptr %22, null
  br i1 %23, label %24, label %25

24:                                               ; preds = %16
  store i32 -1, ptr %5, align 4
  store i32 1, ptr %11, align 4
  br label %27

25:                                               ; preds = %16
  %26 = load ptr, ptr %10, align 8, !tbaa !21
  call void @Py_DECREF(ptr noundef %26)
  store i32 0, ptr %5, align 4
  store i32 1, ptr %11, align 4
  br label %27

27:                                               ; preds = %25, %24
  call void @llvm.lifetime.end.p0(i64 8, ptr %10) #8
  %28 = load i32, ptr %5, align 4
  ret i32 %28
}

; Function Attrs: nounwind uwtable
define internal i32 @_PyErr_WarnFormatV(ptr noundef %0, ptr noundef %1, i64 noundef %2, ptr noundef %3, ptr noundef %4) #0 {
  %6 = alloca i32, align 4
  %7 = alloca ptr, align 8
  %8 = alloca ptr, align 8
  %9 = alloca i64, align 8
  %10 = alloca ptr, align 8
  %11 = alloca ptr, align 8
  %12 = alloca ptr, align 8
  %13 = alloca i32, align 4
  %14 = alloca i32, align 4
  store ptr %0, ptr %7, align 8, !tbaa !21
  store ptr %1, ptr %8, align 8, !tbaa !21
  store i64 %2, ptr %9, align 8, !tbaa !22
  store ptr %3, ptr %10, align 8, !tbaa !31
  store ptr %4, ptr %11, align 8, !tbaa !35
  call void @llvm.lifetime.start.p0(i64 8, ptr %12) #8
  call void @llvm.lifetime.start.p0(i64 4, ptr %13) #8
  %15 = load ptr, ptr %10, align 8, !tbaa !31
  %16 = load ptr, ptr %11, align 8, !tbaa !35
  %17 = call ptr @PyUnicode_FromFormatV(ptr noundef %15, ptr noundef %16)
  store ptr %17, ptr %12, align 8, !tbaa !21
  %18 = load ptr, ptr %12, align 8, !tbaa !21
  %19 = icmp eq ptr %18, null
  br i1 %19, label %20, label %21

20:                                               ; preds = %5
  store i32 -1, ptr %6, align 4
  store i32 1, ptr %14, align 4
  br label %29

21:                                               ; preds = %5
  %22 = load ptr, ptr %8, align 8, !tbaa !21
  %23 = load ptr, ptr %12, align 8, !tbaa !21
  %24 = load i64, ptr %9, align 8, !tbaa !22
  %25 = load ptr, ptr %7, align 8, !tbaa !21
  %26 = call i32 @warn_unicode(ptr noundef %22, ptr noundef %23, i64 noundef %24, ptr noundef %25)
  store i32 %26, ptr %13, align 4, !tbaa !33
  %27 = load ptr, ptr %12, align 8, !tbaa !21
  call void @Py_DECREF(ptr noundef %27)
  %28 = load i32, ptr %13, align 4, !tbaa !33
  store i32 %28, ptr %6, align 4
  store i32 1, ptr %14, align 4
  br label %29

29:                                               ; preds = %21, %20
  call void @llvm.lifetime.end.p0(i64 4, ptr %13) #8
  call void @llvm.lifetime.end.p0(i64 8, ptr %12) #8
  %30 = load i32, ptr %6, align 4
  ret i32 %30
}

; Function Attrs: nounwind uwtable
define dso_local i32 @PyErr_WarnFormat(ptr noundef %0, i64 noundef %1, ptr noundef %2, ...) #0 {
  %4 = alloca ptr, align 8
  %5 = alloca i64, align 8
  %6 = alloca ptr, align 8
  %7 = alloca i32, align 4
  %8 = alloca [1 x %struct.__va_list_tag], align 16
  store ptr %0, ptr %4, align 8, !tbaa !21
  store i64 %1, ptr %5, align 8, !tbaa !22
  store ptr %2, ptr %6, align 8, !tbaa !31
  call void @llvm.lifetime.start.p0(i64 4, ptr %7) #8
  call void @llvm.lifetime.start.p0(i64 24, ptr %8) #8
  %9 = getelementptr inbounds [1 x %struct.__va_list_tag], ptr %8, i64 0, i64 0
  call void @llvm.va_start.p0(ptr %9)
  %10 = load ptr, ptr %4, align 8, !tbaa !21
  %11 = load i64, ptr %5, align 8, !tbaa !22
  %12 = load ptr, ptr %6, align 8, !tbaa !31
  %13 = getelementptr inbounds [1 x %struct.__va_list_tag], ptr %8, i64 0, i64 0
  %14 = call i32 @_PyErr_WarnFormatV(ptr noundef null, ptr noundef %10, i64 noundef %11, ptr noundef %12, ptr noundef %13)
  store i32 %14, ptr %7, align 4, !tbaa !33
  %15 = getelementptr inbounds [1 x %struct.__va_list_tag], ptr %8, i64 0, i64 0
  call void @llvm.va_end.p0(ptr %15)
  %16 = load i32, ptr %7, align 4, !tbaa !33
  call void @llvm.lifetime.end.p0(i64 24, ptr %8) #8
  call void @llvm.lifetime.end.p0(i64 4, ptr %7) #8
  ret i32 %16
}