; Function Attrs: nounwind uwtable
define dso_local range(i32 -1, 1) i32 @PyErr_WarnFormat(ptr noundef %0, i64 noundef %1, ptr noundef %2, ...) local_unnamed_addr #0 {
  %4 = alloca [1 x %struct.__va_list_tag], align 16
  call void @llvm.lifetime.start.p0(i64 24, ptr nonnull %4) #7
  call void @llvm.va_start.p0(ptr nonnull %4)
  %5 = call ptr @PyUnicode_FromFormatV(ptr noundef %2, ptr noundef nonnull %4) #7
  %6 = icmp eq ptr %5, null
  br i1 %6, label %_PyErr_WarnFormatV.exit, label %7

7:                                                ; preds = %3
  %8 = icmp eq ptr %0, null
  %9 = load ptr, ptr @PyExc_RuntimeWarning, align 8
  %spec.select.i.i = select i1 %8, ptr %9, ptr %0
  %10 = call fastcc ptr @do_warn(ptr noundef nonnull %5, ptr noundef %spec.select.i.i, i64 noundef %1, ptr noundef null, ptr noundef null)
  %11 = icmp eq ptr %10, null
  br i1 %11, label %warn_unicode.exit.i, label %12

12:                                               ; preds = %7
  %13 = load i32, ptr %10, align 8, !tbaa !15
  %.not.i.i.i = icmp sgt i32 %13, -1
  br i1 %.not.i.i.i, label %14, label %warn_unicode.exit.i

14:                                               ; preds = %12
  %15 = add nsw i32 %13, -1
  store i32 %15, ptr %10, align 8, !tbaa !15
  %16 = icmp eq i32 %15, 0
  br i1 %16, label %17, label %warn_unicode.exit.i

17:                                               ; preds = %14
  call void @_Py_Dealloc(ptr noundef nonnull %10) #7
  br label %warn_unicode.exit.i

warn_unicode.exit.i:                              ; preds = %17, %14, %12, %7
  %.0.i.i = phi i32 [ -1, %7 ], [ 0, %12 ], [ 0, %14 ], [ 0, %17 ]
  %18 = load i32, ptr %5, align 8, !tbaa !15
  %.not.i.i = icmp sgt i32 %18, -1
  br i1 %.not.i.i, label %19, label %_PyErr_WarnFormatV.exit

19:                                               ; preds = %warn_unicode.exit.i
  %20 = add nsw i32 %18, -1
  store i32 %20, ptr %5, align 8, !tbaa !15
  %21 = icmp eq i32 %20, 0
  br i1 %21, label %22, label %_PyErr_WarnFormatV.exit

22:                                               ; preds = %19
  call void @_Py_Dealloc(ptr noundef nonnull %5) #7
  br label %_PyErr_WarnFormatV.exit

_PyErr_WarnFormatV.exit:                          ; preds = %3, %warn_unicode.exit.i, %19, %22
  %.0.i = phi i32 [ -1, %3 ], [ %.0.i.i, %warn_unicode.exit.i ], [ %.0.i.i, %19 ], [ %.0.i.i, %22 ]
  call void @llvm.va_end.p0(ptr nonnull %4)
  call void @llvm.lifetime.end.p0(i64 24, ptr nonnull %4) #7
  ret i32 %.0.i
}